; Function Attrs: mustprogress nounwind uwtable
define hidden void @_ZN22SystemDictionaryShared46add_to_dump_time_lambda_proxy_class_dictionaryER19LambdaProxyClassKeyP13InstanceKlass(ptr noundef nonnull align 8 dereferenceable(48) %0, ptr noundef %1) local_unnamed_addr #0 align 2 {
  %3 = alloca i8, align 1
  %4 = load ptr, ptr @_ZN22SystemDictionaryShared39_dumptime_lambda_proxy_class_dictionaryE, align 8
  %5 = call noundef ptr @_ZN21ResourceHashtableBaseI29FixedResourceHashtableStorageILj137E19LambdaProxyClassKey28DumpTimeLambdaProxyClassInfoES1_S2_LN6AnyObj15allocation_typeE2EL8MEMFLAGS13EXadL_ZNS1_13DUMPTIME_HASHERKS1_EEXadL_ZNS1_15DUMPTIME_EQUALSES8_S8_EEE13put_if_absentES8_Pb(ptr noundef nonnull align 8 dereferenceable(1100) %4, ptr noundef nonnull align 8 dereferenceable(48) %0, ptr noundef nonnull %3)
  %6 = load ptr, ptr %5, align 8
  %7 = icmp eq ptr %6, null
  br i1 %7, label %8, label %17

8:                                                ; preds = %2
  %9 = call noundef ptr @_ZN6AnyObjnwEm8MEMFLAGS(i64 noundef 24, i8 noundef zeroext 13) #18
  %10 = icmp eq ptr %9, null
  br i1 %10, label %16, label %11

11:                                               ; preds = %8
  %12 = call noundef ptr @_ZN27GrowableArrayCHeapAllocator8allocateEii8MEMFLAGS(i32 noundef 5, i32 noundef 8, i8 noundef zeroext 13) #18
  store i32 0, ptr %9, align 4
  %13 = getelementptr inbounds i8, ptr %9, i64 4
  store i32 5, ptr %13, align 4
  %14 = getelementptr inbounds i8, ptr %9, i64 8
  store ptr %12, ptr %14, align 8
  call void @llvm.memset.p0.i64(ptr noundef nonnull align 8 dereferenceable(40) %12, i8 0, i64 40, i1 false)
  %15 = getelementptr inbounds i8, ptr %9, i64 16
  store i64 27, ptr %15, align 8
  br label %16

16:                                               ; preds = %11, %8
  store ptr %9, ptr %5, align 8
  br label %17

17:                                               ; preds = %16, %2
  %18 = phi ptr [ %9, %16 ], [ %6, %2 ]
  %19 = load i32, ptr %18, align 8
  %20 = getelementptr inbounds i8, ptr %18, i64 4
  %21 = load i32, ptr %20, align 4
  %22 = icmp eq i32 %19, %21
  br i1 %22, label %23, label %_ZN28DumpTimeLambdaProxyClassInfo15add_proxy_klassEP13InstanceKlass.exit

23:                                               ; preds = %17
  %24 = add nsw i32 %19, 1
  %25 = icmp sgt i32 %19, -1
  %26 = xor i32 %19, -2147483648
  %27 = and i32 %26, %24
  %28 = icmp eq i32 %27, 0
  %29 = and i1 %25, %28
  %30 = call range(i32 0, 33) i32 @llvm.ctlz.i32(i32 %24, i1 true)
  %31 = sub nuw nsw i32 32, %30
  %32 = shl nuw i32 1, %31
  %.0.i.i.i.i.i = select i1 %29, i32 %24, i32 %32
  call void @_ZN26GrowableArrayWithAllocatorIP13InstanceKlass13GrowableArrayIS1_EE9expand_toEi(ptr noundef nonnull align 8 dereferenceable(16) %18, i32 noundef %.0.i.i.i.i.i)
  %.pre.i.i = load i32, ptr %18, align 8
  br label %_ZN28DumpTimeLambdaProxyClassInfo15add_proxy_klassEP13InstanceKlass.exit

_ZN28DumpTimeLambdaProxyClassInfo15add_proxy_klassEP13InstanceKlass.exit: ; preds = %17, %23
  %33 = phi i32 [ %.pre.i.i, %23 ], [ %19, %17 ]
  %34 = add nsw i32 %33, 1
  store i32 %34, ptr %18, align 8
  %35 = getelementptr inbounds i8, ptr %18, i64 8
  %36 = load ptr, ptr %35, align 8
  %37 = sext i32 %33 to i64
  %38 = getelementptr inbounds ptr, ptr %36, i64 %37
  store ptr %1, ptr %38, align 8
  %39 = load i8, ptr %3, align 1
  %40 = trunc i8 %39 to i1
  br i1 %40, label %41, label %46

41:                                               ; preds = %_ZN28DumpTimeLambdaProxyClassInfo15add_proxy_klassEP13InstanceKlass.exit
  %42 = load ptr, ptr @_ZN22SystemDictionaryShared39_dumptime_lambda_proxy_class_dictionaryE, align 8
  %43 = getelementptr inbounds i8, ptr %42, i64 1100
  %44 = load i32, ptr %43, align 4
  %45 = add nsw i32 %44, 1
  store i32 %45, ptr %43, align 4
  br label %46

46:                                               ; preds = %41, %_ZN28DumpTimeLambdaProxyClassInfo15add_proxy_klassEP13InstanceKlass.exit
  ret void
}